target datalayout = "e-m:e-p270:32:32-p271:32:32-p272:64:64-i64:64-i128:128-f80:128-n8:16:32:64-S128"
target triple = "x86_64-pc-linux-gnu"

%struct.Abc_Ntk_t_ = type { i32, i32, ptr, ptr, ptr, ptr, ptr, ptr, ptr, ptr, ptr, ptr, ptr, [11 x i32], i32, i32, i32, i32, ptr, i32, ptr, ptr, i32, i32, i32, double, i32, %struct.Vec_Int_t_, ptr, ptr, ptr, ptr, ptr, float, i32, ptr, ptr, ptr, ptr, ptr, ptr, ptr, ptr, ptr, ptr, ptr, ptr, ptr, ptr, ptr, ptr, ptr, ptr, ptr, ptr, ptr, ptr }
%struct.Vec_Int_t_ = type { i32, i32, ptr }
%struct.Abc_Obj_t_ = type { ptr, ptr, i32, i32, %struct.Vec_Int_t_, %struct.Vec_Int_t_, %union.anon, %union.anon.0 }
%union.anon = type { ptr }
%union.anon.0 = type { ptr }
%struct.Vec_Ptr_t_ = type { i32, i32, ptr }

@.str.1 = private unnamed_addr constant [10 x i8] c"%6d : %c\0A\00", align 1
@.str.2 = private unnamed_addr constant [13 x i8] c"%6d : %2d = \00", align 1
@.str.3 = private unnamed_addr constant [3 x i8] c"%c\00", align 1
@.str.4 = private unnamed_addr constant [3 x i8] c"%d\00", align 1
@.str.5 = private unnamed_addr constant [4 x i8] c"%s \00", align 1
@.str.6 = private unnamed_addr constant [2 x i8] c"'\00", align 1
@.str.7 = private unnamed_addr constant [1 x i8] zeroinitializer, align 1
@.str.8 = private unnamed_addr constant [6 x i8] c" root\00", align 1
@.str.9 = private unnamed_addr constant [2 x i8] c"\0A\00", align 1

; Function Attrs: inlinehint nounwind uwtable
define internal i32 @Abc_ObjFaninC1(ptr noundef %0) #3 {
  %2 = alloca ptr, align 8
  store ptr %0, ptr %2, align 8, !tbaa !45
  %3 = load ptr, ptr %2, align 8, !tbaa !45
  %4 = getelementptr inbounds nuw %struct.Abc_Obj_t_, ptr %3, i32 0, i32 3
  %5 = load i32, ptr %4, align 4
  %6 = lshr i32 %5, 11
  %7 = and i32 %6, 1
  ret i32 %7
}

; Function Attrs: inlinehint nounwind uwtable
define internal ptr @Abc_ObjFanin1(ptr noundef %0) #3 {
  %2 = alloca ptr, align 8
  store ptr %0, ptr %2, align 8, !tbaa !45
  %3 = load ptr, ptr %2, align 8, !tbaa !45
  %4 = getelementptr inbounds nuw %struct.Abc_Obj_t_, ptr %3, i32 0, i32 0
  %5 = load ptr, ptr %4, align 8, !tbaa !76
  %6 = getelementptr inbounds nuw %struct.Abc_Ntk_t_, ptr %5, i32 0, i32 5
  %7 = load ptr, ptr %6, align 8, !tbaa !44
  %8 = getelementptr inbounds nuw %struct.Vec_Ptr_t_, ptr %7, i32 0, i32 2
  %9 = load ptr, ptr %8, align 8, !tbaa !74
  %10 = load ptr, ptr %2, align 8, !tbaa !45
  %11 = getelementptr inbounds nuw %struct.Abc_Obj_t_, ptr %10, i32 0, i32 4
  %12 = getelementptr inbounds nuw %struct.Vec_Int_t_, ptr %11, i32 0, i32 2
  %13 = load ptr, ptr %12, align 8, !tbaa !77
  %14 = getelementptr inbounds i32, ptr %13, i64 1
  %15 = load i32, ptr %14, align 4, !tbaa !8
  %16 = sext i32 %15 to i64
  %17 = getelementptr inbounds ptr, ptr %9, i64 %16
  %18 = load ptr, ptr %17, align 8, !tbaa !75
  ret ptr %18
}

; Function Attrs: inlinehint nounwind uwtable
define internal i32 @Abc_ObjFaninC0(ptr noundef %0) #3 {
  %2 = alloca ptr, align 8
  store ptr %0, ptr %2, align 8, !tbaa !45
  %3 = load ptr, ptr %2, align 8, !tbaa !45
  %4 = getelementptr inbounds nuw %struct.Abc_Obj_t_, ptr %3, i32 0, i32 3
  %5 = load i32, ptr %4, align 4
  %6 = lshr i32 %5, 10
  %7 = and i32 %6, 1
  ret i32 %7
}

; Function Attrs: inlinehint nounwind uwtable
define internal ptr @Abc_ObjFanin0(ptr noundef %0) #3 {
  %2 = alloca ptr, align 8
  store ptr %0, ptr %2, align 8, !tbaa !45
  %3 = load ptr, ptr %2, align 8, !tbaa !45
  %4 = getelementptr inbounds nuw %struct.Abc_Obj_t_, ptr %3, i32 0, i32 0
  %5 = load ptr, ptr %4, align 8, !tbaa !76
  %6 = getelementptr inbounds nuw %struct.Abc_Ntk_t_, ptr %5, i32 0, i32 5
  %7 = load ptr, ptr %6, align 8, !tbaa !44
  %8 = getelementptr inbounds nuw %struct.Vec_Ptr_t_, ptr %7, i32 0, i32 2
  %9 = load ptr, ptr %8, align 8, !tbaa !74
  %10 = load ptr, ptr %2, align 8, !tbaa !45
  %11 = getelementptr inbounds nuw %struct.Abc_Obj_t_, ptr %10, i32 0, i32 4
  %12 = getelementptr inbounds nuw %struct.Vec_Int_t_, ptr %11, i32 0, i32 2
  %13 = load ptr, ptr %12, align 8, !tbaa !77
  %14 = getelementptr inbounds i32, ptr %13, i64 0
  %15 = load i32, ptr %14, align 4, !tbaa !8
  %16 = sext i32 %15 to i64
  %17 = getelementptr inbounds ptr, ptr %9, i64 %16
  %18 = load ptr, ptr %17, align 8, !tbaa !75
  ret ptr %18
}

; Function Attrs: inlinehint nounwind uwtable
define internal ptr @Vec_PtrEntry(ptr noundef %0, i32 noundef %1) #3 {
  %3 = alloca ptr, align 8
  %4 = alloca i32, align 4
  store ptr %0, ptr %3, align 8, !tbaa !66
  store i32 %1, ptr %4, align 4, !tbaa !8
  %5 = load ptr, ptr %3, align 8, !tbaa !66
  %6 = getelementptr inbounds nuw %struct.Vec_Ptr_t_, ptr %5, i32 0, i32 2
  %7 = load ptr, ptr %6, align 8, !tbaa !74
  %8 = load i32, ptr %4, align 4, !tbaa !8
  %9 = sext i32 %8 to i64
  %10 = getelementptr inbounds ptr, ptr %7, i64 %9
  %11 = load ptr, ptr %10, align 8, !tbaa !75
  ret ptr %11
}

; Function Attrs: inlinehint nounwind uwtable
define internal i32 @Vec_PtrSize(ptr noundef %0) #3 {
  %2 = alloca ptr, align 8
  store ptr %0, ptr %2, align 8, !tbaa !66
  %3 = load ptr, ptr %2, align 8, !tbaa !66
  %4 = getelementptr inbounds nuw %struct.Vec_Ptr_t_, ptr %3, i32 0, i32 1
  %5 = load i32, ptr %4, align 4, !tbaa !67
  ret i32 %5
}

; Function Attrs: inlinehint nounwind uwtable
define internal ptr @Vec_PtrEntryLast(ptr noundef %0) #3 {
  %2 = alloca ptr, align 8
  store ptr %0, ptr %2, align 8, !tbaa !66
  %3 = load ptr, ptr %2, align 8, !tbaa !66
  %4 = getelementptr inbounds nuw %struct.Vec_Ptr_t_, ptr %3, i32 0, i32 2
  %5 = load ptr, ptr %4, align 8, !tbaa !74
  %6 = load ptr, ptr %2, align 8, !tbaa !66
  %7 = getelementptr inbounds nuw %struct.Vec_Ptr_t_, ptr %6, i32 0, i32 1
  %8 = load i32, ptr %7, align 4, !tbaa !67
  %9 = sub nsw i32 %8, 1
  %10 = sext i32 %9 to i64
  %11 = getelementptr inbounds ptr, ptr %5, i64 %10
  %12 = load ptr, ptr %11, align 8, !tbaa !75
  ret ptr %12
}

; Function Attrs: nounwind uwtable
define void @Abc_ManRewritePrintDivs(ptr noundef %0, i32 noundef %1) #0 {
  %3 = alloca ptr, align 8
  %4 = alloca i32, align 4
  %5 = alloca ptr, align 8
  %6 = alloca ptr, align 8
  %7 = alloca ptr, align 8
  %8 = alloca i32, align 4
  %9 = alloca i32, align 4
  store ptr %0, ptr %3, align 8, !tbaa !66
  store i32 %1, ptr %4, align 4, !tbaa !8
  call void @llvm.lifetime.start.p0(i64 8, ptr %5) #8
  call void @llvm.lifetime.start.p0(i64 8, ptr %6) #8
  call void @llvm.lifetime.start.p0(i64 8, ptr %7) #8
  call void @llvm.lifetime.start.p0(i64 4, ptr %8) #8
  call void @llvm.lifetime.start.p0(i64 4, ptr %9) #8
  %10 = load ptr, ptr %3, align 8, !tbaa !66
  %11 = call ptr @Vec_PtrEntryLast(ptr noundef %10)
  store ptr %11, ptr %7, align 8, !tbaa !45
  store i32 0, ptr %8, align 4, !tbaa !8
  br label %12

12:                                               ; preds = %123, %2
  %13 = load i32, ptr %8, align 4, !tbaa !8
  %14 = load ptr, ptr %3, align 8, !tbaa !66
  %15 = call i32 @Vec_PtrSize(ptr noundef %14)
  %16 = icmp slt i32 %13, %15
  br i1 %16, label %17, label %21

17:                                               ; preds = %12
  %18 = load ptr, ptr %3, align 8, !tbaa !66
  %19 = load i32, ptr %8, align 4, !tbaa !8
  %20 = call ptr @Vec_PtrEntry(ptr noundef %18, i32 noundef %19)
  store ptr %20, ptr %6, align 8, !tbaa !45
  br label %21

21:                                               ; preds = %17, %12
  %22 = phi i1 [ false, %12 ], [ true, %17 ]
  br i1 %22, label %23, label %126

23:                                               ; preds = %21
  %24 = load i32, ptr %8, align 4, !tbaa !8
  %25 = load i32, ptr %4, align 4, !tbaa !8
  %26 = icmp slt i32 %24, %25
  br i1 %26, label %27, label %34

27:                                               ; preds = %23
  %28 = load ptr, ptr %6, align 8, !tbaa !45
  %29 = getelementptr inbounds nuw %struct.Abc_Obj_t_, ptr %28, i32 0, i32 2
  %30 = load i32, ptr %29, align 8, !tbaa !63
  %31 = load i32, ptr %8, align 4, !tbaa !8
  %32 = add nsw i32 97, %31
  %33 = call i32 (ptr, ...) @printf(ptr noundef @.str.1, i32 noundef %30, i32 noundef %32)
  br label %123

34:                                               ; preds = %23
  %35 = load ptr, ptr %6, align 8, !tbaa !45
  %36 = getelementptr inbounds nuw %struct.Abc_Obj_t_, ptr %35, i32 0, i32 2
  %37 = load i32, ptr %36, align 8, !tbaa !63
  %38 = load i32, ptr %8, align 4, !tbaa !8
  %39 = call i32 (ptr, ...) @printf(ptr noundef @.str.2, i32 noundef %37, i32 noundef %38)
  store i32 0, ptr %9, align 4, !tbaa !8
  br label %40

40:                                               ; preds = %58, %34
  %41 = load i32, ptr %9, align 4, !tbaa !8
  %42 = load ptr, ptr %3, align 8, !tbaa !66
  %43 = call i32 @Vec_PtrSize(ptr noundef %42)
  %44 = icmp slt i32 %41, %43
  br i1 %44, label %45, label %49

45:                                               ; preds = %40
  %46 = load ptr, ptr %3, align 8, !tbaa !66
  %47 = load i32, ptr %9, align 4, !tbaa !8
  %48 = call ptr @Vec_PtrEntry(ptr noundef %46, i32 noundef %47)
  store ptr %48, ptr %5, align 8, !tbaa !45
  br label %49

49:                                               ; preds = %45, %40
  %50 = phi i1 [ false, %40 ], [ true, %45 ]
  br i1 %50, label %51, label %61

51:                                               ; preds = %49
  %52 = load ptr, ptr %6, align 8, !tbaa !45
  %53 = call ptr @Abc_ObjFanin0(ptr noundef %52)
  %54 = load ptr, ptr %5, align 8, !tbaa !45
  %55 = icmp eq ptr %53, %54
  br i1 %55, label %56, label %57

56:                                               ; preds = %51
  br label %61

57:                                               ; preds = %51
  br label %58

58:                                               ; preds = %57
  %59 = load i32, ptr %9, align 4, !tbaa !8
  %60 = add nsw i32 %59, 1
  store i32 %60, ptr %9, align 4, !tbaa !8
  br label %40, !llvm.loop !71

61:                                               ; preds = %56, %49
  %62 = load i32, ptr %9, align 4, !tbaa !8
  %63 = load i32, ptr %4, align 4, !tbaa !8
  %64 = icmp slt i32 %62, %63
  br i1 %64, label %65, label %69

65:                                               ; preds = %61
  %66 = load i32, ptr %9, align 4, !tbaa !8
  %67 = add nsw i32 97, %66
  %68 = call i32 (ptr, ...) @printf(ptr noundef @.str.3, i32 noundef %67)
  br label %72

69:                                               ; preds = %61
  %70 = load i32, ptr %9, align 4, !tbaa !8
  %71 = call i32 (ptr, ...) @printf(ptr noundef @.str.4, i32 noundef %70)
  br label %72

72:                                               ; preds = %69, %65
  %73 = load ptr, ptr %6, align 8, !tbaa !45
  %74 = call i32 @Abc_ObjFaninC0(ptr noundef %73)
  %75 = icmp ne i32 %74, 0
  %76 = select i1 %75, ptr @.str.6, ptr @.str.7
  %77 = call i32 (ptr, ...) @printf(ptr noundef @.str.5, ptr noundef %76)
  store i32 0, ptr %9, align 4, !tbaa !8
  br label %78

78:                                               ; preds = %96, %72
  %79 = load i32, ptr %9, align 4, !tbaa !8
  %80 = load ptr, ptr %3, align 8, !tbaa !66
  %81 = call i32 @Vec_PtrSize(ptr noundef %80)
  %82 = icmp slt i32 %79, %81
  br i1 %82, label %83, label %87

83:                                               ; preds = %78
  %84 = load ptr, ptr %3, align 8, !tbaa !66
  %85 = load i32, ptr %9, align 4, !tbaa !8
  %86 = call ptr @Vec_PtrEntry(ptr noundef %84, i32 noundef %85)
  store ptr %86, ptr %5, align 8, !tbaa !45
  br label %87

87:                                               ; preds = %83, %78
  %88 = phi i1 [ false, %78 ], [ true, %83 ]
  br i1 %88, label %89, label %99

89:                                               ; preds = %87
  %90 = load ptr, ptr %6, align 8, !tbaa !45
  %91 = call ptr @Abc_ObjFanin1(ptr noundef %90)
  %92 = load ptr, ptr %5, align 8, !tbaa !45
  %93 = icmp eq ptr %91, %92
  br i1 %93, label %94, label %95

94:                                               ; preds = %89
  br label %99

95:                                               ; preds = %89
  br label %96

96:                                               ; preds = %95
  %97 = load i32, ptr %9, align 4, !tbaa !8
  %98 = add nsw i32 %97, 1
  store i32 %98, ptr %9, align 4, !tbaa !8
  br label %78, !llvm.loop !72

99:                                               ; preds = %94, %87
  %100 = load i32, ptr %9, align 4, !tbaa !8
  %101 = load i32, ptr %4, align 4, !tbaa !8
  %102 = icmp slt i32 %100, %101
  br i1 %102, label %103, label %107

103:                                              ; preds = %99
  %104 = load i32, ptr %9, align 4, !tbaa !8
  %105 = add nsw i32 97, %104
  %106 = call i32 (ptr, ...) @printf(ptr noundef @.str.3, i32 noundef %105)
  br label %110

107:                                              ; preds = %99
  %108 = load i32, ptr %9, align 4, !tbaa !8
  %109 = call i32 (ptr, ...) @printf(ptr noundef @.str.4, i32 noundef %108)
  br label %110

110:                                              ; preds = %107, %103
  %111 = load ptr, ptr %6, align 8, !tbaa !45
  %112 = call i32 @Abc_ObjFaninC1(ptr noundef %111)
  %113 = icmp ne i32 %112, 0
  %114 = select i1 %113, ptr @.str.6, ptr @.str.7
  %115 = call i32 (ptr, ...) @printf(ptr noundef @.str.5, ptr noundef %114)
  %116 = load ptr, ptr %6, align 8, !tbaa !45
  %117 = load ptr, ptr %7, align 8, !tbaa !45
  %118 = icmp eq ptr %116, %117
  br i1 %118, label %119, label %121

119:                                              ; preds = %110
  %120 = call i32 (ptr, ...) @printf(ptr noundef @.str.8)
  br label %121

121:                                              ; preds = %119, %110
  %122 = call i32 (ptr, ...) @printf(ptr noundef @.str.9)
  br label %123

123:                                              ; preds = %121, %27
  %124 = load i32, ptr %8, align 4, !tbaa !8
  %125 = add nsw i32 %124, 1
  store i32 %125, ptr %8, align 4, !tbaa !8
  br label %12, !llvm.loop !73

126:                                              ; preds = %21
  %127 = call i32 (ptr, ...) @printf(ptr noundef @.str.9)
  call void @llvm.lifetime.end.p0(i64 4, ptr %9) #8
  call void @llvm.lifetime.end.p0(i64 4, ptr %8) #8
  call void @llvm.lifetime.end.p0(i64 8, ptr %7) #8
  call void @llvm.lifetime.end.p0(i64 8, ptr %6) #8
  call void @llvm.lifetime.end.p0(i64 8, ptr %5) #8
  ret void
}