; Function Attrs: nofree nounwind uwtable
define void @Abc_ManRewritePrintDivs(ptr noundef readonly captures(none) %0, i32 noundef %1) local_unnamed_addr #4 {
  %3 = getelementptr i8, ptr %0, i64 4
  %.val52 = load i32, ptr %3, align 4, !tbaa !35
  %4 = getelementptr i8, ptr %0, i64 8
  %.val53 = load ptr, ptr %4, align 8, !tbaa !40
  %5 = sext i32 %.val52 to i64
  %6 = getelementptr ptr, ptr %.val53, i64 %5
  %7 = getelementptr i8, ptr %6, i64 -8
  %8 = load ptr, ptr %7, align 8, !tbaa !41
  %9 = icmp sgt i32 %.val52, 0
  br i1 %9, label %.lr.ph70.preheader, label %.critedge

.lr.ph70.preheader:                               ; preds = %2
  %10 = sext i32 %1 to i64
  br label %.lr.ph70

.lr.ph70:                                         ; preds = %.lr.ph70.preheader, %72
  %indvars.iv77 = phi i64 [ 0, %.lr.ph70.preheader ], [ %indvars.iv.next78, %72 ]
  %.val49 = load ptr, ptr %4, align 8, !tbaa !40
  %11 = getelementptr inbounds nuw ptr, ptr %.val49, i64 %indvars.iv77
  %12 = load ptr, ptr %11, align 8, !tbaa !41
  %13 = icmp slt i64 %indvars.iv77, %10
  %14 = getelementptr inbounds nuw i8, ptr %12, i64 16
  %15 = load i32, ptr %14, align 8, !tbaa !45
  %16 = trunc i64 %indvars.iv77 to i32
  br i1 %13, label %17, label %20

17:                                               ; preds = %.lr.ph70
  %18 = add i32 %16, 97
  %19 = tail call i32 (ptr, ...) @printf(ptr noundef nonnull dereferenceable(1) @.str.1, i32 noundef %15, i32 noundef %18)
  br label %72

20:                                               ; preds = %.lr.ph70
  %21 = tail call i32 (ptr, ...) @printf(ptr noundef nonnull dereferenceable(1) @.str.2, i32 noundef %15, i32 noundef %16)
  %.val47 = load i32, ptr %3, align 4, !tbaa !35
  %22 = icmp sgt i32 %.val47, 0
  br i1 %22, label %.lr.ph, label %.critedge2

.lr.ph:                                           ; preds = %20
  %.val50 = load ptr, ptr %4, align 8, !tbaa !40
  %.val54 = load ptr, ptr %12, align 8, !tbaa !61
  %23 = getelementptr i8, ptr %12, i64 32
  %.val55 = load ptr, ptr %23, align 8, !tbaa !62
  %24 = getelementptr i8, ptr %.val54, i64 32
  %.val54.val = load ptr, ptr %24, align 8, !tbaa !34
  %.val55.val = load i32, ptr %.val55, align 4, !tbaa !49
  %25 = getelementptr i8, ptr %.val54.val, i64 8
  %.val54.val.val = load ptr, ptr %25, align 8, !tbaa !40
  %26 = sext i32 %.val55.val to i64
  %27 = getelementptr inbounds ptr, ptr %.val54.val.val, i64 %26
  %28 = load ptr, ptr %27, align 8, !tbaa !41
  %wide.trip.count = zext nneg i32 %.val47 to i64
  br label %29

29:                                               ; preds = %.lr.ph, %33
  %indvars.iv = phi i64 [ 0, %.lr.ph ], [ %indvars.iv.next, %33 ]
  %30 = getelementptr inbounds nuw ptr, ptr %.val50, i64 %indvars.iv
  %31 = load ptr, ptr %30, align 8, !tbaa !41
  %32 = icmp eq ptr %28, %31
  br i1 %32, label %.critedge2.loopexit.split.loop.exit80, label %33

33:                                               ; preds = %29
  %indvars.iv.next = add nuw nsw i64 %indvars.iv, 1
  %exitcond.not = icmp eq i64 %indvars.iv.next, %wide.trip.count
  br i1 %exitcond.not, label %.critedge2, label %29, !llvm.loop !63

.critedge2.loopexit.split.loop.exit80:            ; preds = %29
  %34 = trunc nuw nsw i64 %indvars.iv to i32
  br label %.critedge2

.critedge2:                                       ; preds = %33, %.critedge2.loopexit.split.loop.exit80, %20
  %.0.lcssa = phi i32 [ 0, %20 ], [ %34, %.critedge2.loopexit.split.loop.exit80 ], [ %.val47, %33 ]
  %35 = icmp slt i32 %.0.lcssa, %1
  br i1 %35, label %36, label %38

36:                                               ; preds = %.critedge2
  %37 = add nuw nsw i32 %.0.lcssa, 97
  %putchar43 = tail call i32 @putchar(i32 %37)
  br label %40

38:                                               ; preds = %.critedge2
  %39 = tail call i32 (ptr, ...) @printf(ptr noundef nonnull dereferenceable(1) @.str.4, i32 noundef %.0.lcssa)
  br label %40

40:                                               ; preds = %38, %36
  %41 = getelementptr i8, ptr %12, i64 20
  %.val56 = load i32, ptr %41, align 4
  %42 = and i32 %.val56, 1024
  %.not = icmp eq i32 %42, 0
  %43 = select i1 %.not, ptr @.str.7, ptr @.str.6
  %44 = tail call i32 (ptr, ...) @printf(ptr noundef nonnull dereferenceable(1) @.str.5, ptr noundef nonnull %43)
  %.val = load i32, ptr %3, align 4, !tbaa !35
  %45 = icmp sgt i32 %.val, 0
  br i1 %45, label %.lr.ph64, label %.critedge4

.lr.ph64:                                         ; preds = %40
  %.val51 = load ptr, ptr %4, align 8, !tbaa !40
  %.val57 = load ptr, ptr %12, align 8, !tbaa !61
  %46 = getelementptr i8, ptr %12, i64 32
  %.val58 = load ptr, ptr %46, align 8, !tbaa !62
  %47 = getelementptr i8, ptr %.val57, i64 32
  %.val57.val = load ptr, ptr %47, align 8, !tbaa !34
  %48 = getelementptr i8, ptr %.val58, i64 4
  %.val58.val = load i32, ptr %48, align 4, !tbaa !49
  %49 = getelementptr i8, ptr %.val57.val, i64 8
  %.val57.val.val = load ptr, ptr %49, align 8, !tbaa !40
  %50 = sext i32 %.val58.val to i64
  %51 = getelementptr inbounds ptr, ptr %.val57.val.val, i64 %50
  %52 = load ptr, ptr %51, align 8, !tbaa !41
  %wide.trip.count75 = zext nneg i32 %.val to i64
  br label %53

53:                                               ; preds = %.lr.ph64, %57
  %indvars.iv72 = phi i64 [ 0, %.lr.ph64 ], [ %indvars.iv.next73, %57 ]
  %54 = getelementptr inbounds nuw ptr, ptr %.val51, i64 %indvars.iv72
  %55 = load ptr, ptr %54, align 8, !tbaa !41
  %56 = icmp eq ptr %52, %55
  br i1 %56, label %.critedge4.loopexit.split.loop.exit82, label %57

57:                                               ; preds = %53
  %indvars.iv.next73 = add nuw nsw i64 %indvars.iv72, 1
  %exitcond76.not = icmp eq i64 %indvars.iv.next73, %wide.trip.count75
  br i1 %exitcond76.not, label %.critedge4, label %53, !llvm.loop !64

.critedge4.loopexit.split.loop.exit82:            ; preds = %53
  %58 = trunc nuw nsw i64 %indvars.iv72 to i32
  br label %.critedge4

.critedge4:                                       ; preds = %57, %.critedge4.loopexit.split.loop.exit82, %40
  %.1.lcssa = phi i32 [ 0, %40 ], [ %58, %.critedge4.loopexit.split.loop.exit82 ], [ %.val, %57 ]
  %59 = icmp slt i32 %.1.lcssa, %1
  br i1 %59, label %60, label %62

60:                                               ; preds = %.critedge4
  %61 = add nuw nsw i32 %.1.lcssa, 97
  %putchar44 = tail call i32 @putchar(i32 %61)
  br label %64

62:                                               ; preds = %.critedge4
  %63 = tail call i32 (ptr, ...) @printf(ptr noundef nonnull dereferenceable(1) @.str.4, i32 noundef %.1.lcssa)
  br label %64

64:                                               ; preds = %62, %60
  %.val59 = load i32, ptr %41, align 4
  %65 = and i32 %.val59, 2048
  %.not45 = icmp eq i32 %65, 0
  %66 = select i1 %.not45, ptr @.str.7, ptr @.str.6
  %67 = tail call i32 (ptr, ...) @printf(ptr noundef nonnull dereferenceable(1) @.str.5, ptr noundef nonnull %66)
  %68 = icmp eq ptr %12, %8
  br i1 %68, label %69, label %71

69:                                               ; preds = %64
  %70 = tail call i32 (ptr, ...) @printf(ptr noundef nonnull dereferenceable(1) @.str.8)
  br label %71

71:                                               ; preds = %69, %64
  %putchar46 = tail call i32 @putchar(i32 10)
  br label %72

72:                                               ; preds = %71, %17
  %indvars.iv.next78 = add nuw nsw i64 %indvars.iv77, 1
  %.val48 = load i32, ptr %3, align 4, !tbaa !35
  %73 = sext i32 %.val48 to i64
  %74 = icmp slt i64 %indvars.iv.next78, %73
  br i1 %74, label %.lr.ph70, label %.critedge, !llvm.loop !65

.critedge:                                        ; preds = %72, %2
  %putchar = tail call i32 @putchar(i32 10)
  ret void
}